; Function Attrs: mustprogress nofree nounwind willreturn memory(write, argmem: none, inaccessiblemem: readwrite) uwtable
define noalias noundef ptr @Kit_GraphCreate(i32 noundef %0) local_unnamed_addr #0 {
  %calloc = tail call dereferenceable_or_null(32) ptr @calloc(i64 1, i64 32)
  %2 = getelementptr inbounds nuw i8, ptr %calloc, i64 4
  store i32 %0, ptr %2, align 4, !tbaa !3
  %3 = getelementptr inbounds nuw i8, ptr %calloc, i64 8
  store i32 %0, ptr %3, align 8, !tbaa !11
  %4 = shl nsw i32 %0, 1
  %5 = add nsw i32 %4, 50
  %6 = getelementptr inbounds nuw i8, ptr %calloc, i64 12
  store i32 %5, ptr %6, align 4, !tbaa !12
  %7 = sext i32 %5 to i64
  %8 = mul nsw i64 %7, 24
  %9 = tail call noalias ptr @malloc(i64 noundef %8) #20
  %10 = getelementptr inbounds nuw i8, ptr %calloc, i64 16
  store ptr %9, ptr %10, align 8, !tbaa !13
  %11 = sext i32 %0 to i64
  %12 = mul nsw i64 %11, 24
  tail call void @llvm.memset.p0.i64(ptr align 8 %9, i8 0, i64 %12, i1 false)
  ret ptr %calloc
}